target datalayout = "e-m:e-p270:32:32-p271:32:32-p272:64:64-i64:64-i128:128-f80:128-n8:16:32:64-S128"
target triple = "x86_64-pc-linux-gnu"

%struct.mbedtls_ssl_tls13_labels_struct = type { [8 x i8], [10 x i8], [11 x i8], [8 x i8], [3 x i8], [2 x i8], [12 x i8], [12 x i8], [11 x i8], [12 x i8], [12 x i8], [11 x i8], [12 x i8], [10 x i8], [10 x i8], [10 x i8], [10 x i8], [7 x i8], [33 x i8], [33 x i8] }

@.str = private unnamed_addr constant [128 x i8] c"generated/home/dtcxzyw/WorkSpace/Projects/compilers/llvm-opt-benchmark/bench/lief/bench_build/mbed_src/library/ssl_tls13_keys.c\00", align 1
@.str.6 = private unnamed_addr constant [32 x i8] c"mbedtls_ssl_tls13_evolve_secret\00", align 1
@.str.7 = private unnamed_addr constant [36 x i8] c"mbedtls_ssl_tls13_create_psk_binder\00", align 1
@.str.8 = private unnamed_addr constant [38 x i8] c"Derive Early Secret with 'res binder'\00", align 1
@.str.9 = private unnamed_addr constant [38 x i8] c"Derive Early Secret with 'ext binder'\00", align 1
@.str.10 = private unnamed_addr constant [32 x i8] c"mbedtls_ssl_tls13_derive_secret\00", align 1
@.str.11 = private unnamed_addr constant [11 x i8] c"psk binder\00", align 1

; Function Attrs: nounwind uwtable
define hidden i32 @mbedtls_ssl_tls13_create_psk_binder(ptr noundef %0, i32 noundef %1, ptr noundef %2, i64 noundef %3, i32 noundef %4, ptr noundef %5, ptr noundef %6) #0 {
  %8 = alloca i32, align 4
  %9 = alloca ptr, align 8
  %10 = alloca i32, align 4
  %11 = alloca ptr, align 8
  %12 = alloca i64, align 8
  %13 = alloca i32, align 4
  %14 = alloca ptr, align 8
  %15 = alloca ptr, align 8
  %16 = alloca i32, align 4
  %17 = alloca [64 x i8], align 16
  %18 = alloca [64 x i8], align 16
  %19 = alloca i64, align 8
  %20 = alloca i64, align 8
  %21 = alloca i32, align 4
  store ptr %0, ptr %9, align 8, !tbaa !21
  store i32 %1, ptr %10, align 4, !tbaa !3
  store ptr %2, ptr %11, align 8, !tbaa !7
  store i64 %3, ptr %12, align 8, !tbaa !10
  store i32 %4, ptr %13, align 4, !tbaa !3
  store ptr %5, ptr %14, align 8, !tbaa !7
  store ptr %6, ptr %15, align 8, !tbaa !7
  call void @llvm.lifetime.start.p0(i64 4, ptr %16) #8
  store i32 0, ptr %16, align 4, !tbaa !3
  call void @llvm.lifetime.start.p0(i64 64, ptr %17) #8
  call void @llvm.lifetime.start.p0(i64 64, ptr %18) #8
  call void @llvm.lifetime.start.p0(i64 8, ptr %19) #8
  %22 = load i32, ptr %10, align 4, !tbaa !3
  %23 = and i32 %22, 255
  %24 = or i32 33554432, %23
  %25 = icmp eq i32 %24, 33554435
  br i1 %25, label %26, label %27

26:                                               ; preds = %7
  br label %121

27:                                               ; preds = %7
  %28 = load i32, ptr %10, align 4, !tbaa !3
  %29 = and i32 %28, 255
  %30 = or i32 33554432, %29
  %31 = icmp eq i32 %30, 33554436
  br i1 %31, label %32, label %33

32:                                               ; preds = %27
  br label %119

33:                                               ; preds = %27
  %34 = load i32, ptr %10, align 4, !tbaa !3
  %35 = and i32 %34, 255
  %36 = or i32 33554432, %35
  %37 = icmp eq i32 %36, 33554437
  br i1 %37, label %38, label %39

38:                                               ; preds = %33
  br label %117

39:                                               ; preds = %33
  %40 = load i32, ptr %10, align 4, !tbaa !3
  %41 = and i32 %40, 255
  %42 = or i32 33554432, %41
  %43 = icmp eq i32 %42, 33554440
  br i1 %43, label %44, label %45

44:                                               ; preds = %39
  br label %115

45:                                               ; preds = %39
  %46 = load i32, ptr %10, align 4, !tbaa !3
  %47 = and i32 %46, 255
  %48 = or i32 33554432, %47
  %49 = icmp eq i32 %48, 33554441
  br i1 %49, label %50, label %51

50:                                               ; preds = %45
  br label %113

51:                                               ; preds = %45
  %52 = load i32, ptr %10, align 4, !tbaa !3
  %53 = and i32 %52, 255
  %54 = or i32 33554432, %53
  %55 = icmp eq i32 %54, 33554442
  br i1 %55, label %56, label %57

56:                                               ; preds = %51
  br label %111

57:                                               ; preds = %51
  %58 = load i32, ptr %10, align 4, !tbaa !3
  %59 = and i32 %58, 255
  %60 = or i32 33554432, %59
  %61 = icmp eq i32 %60, 33554443
  br i1 %61, label %62, label %63

62:                                               ; preds = %57
  br label %109

63:                                               ; preds = %57
  %64 = load i32, ptr %10, align 4, !tbaa !3
  %65 = and i32 %64, 255
  %66 = or i32 33554432, %65
  %67 = icmp eq i32 %66, 33554444
  br i1 %67, label %68, label %69

68:                                               ; preds = %63
  br label %107

69:                                               ; preds = %63
  %70 = load i32, ptr %10, align 4, !tbaa !3
  %71 = and i32 %70, 255
  %72 = or i32 33554432, %71
  %73 = icmp eq i32 %72, 33554445
  br i1 %73, label %74, label %75

74:                                               ; preds = %69
  br label %105

75:                                               ; preds = %69
  %76 = load i32, ptr %10, align 4, !tbaa !3
  %77 = and i32 %76, 255
  %78 = or i32 33554432, %77
  %79 = icmp eq i32 %78, 33554448
  br i1 %79, label %80, label %81

80:                                               ; preds = %75
  br label %103

81:                                               ; preds = %75
  %82 = load i32, ptr %10, align 4, !tbaa !3
  %83 = and i32 %82, 255
  %84 = or i32 33554432, %83
  %85 = icmp eq i32 %84, 33554449
  br i1 %85, label %86, label %87

86:                                               ; preds = %81
  br label %101

87:                                               ; preds = %81
  %88 = load i32, ptr %10, align 4, !tbaa !3
  %89 = and i32 %88, 255
  %90 = or i32 33554432, %89
  %91 = icmp eq i32 %90, 33554450
  br i1 %91, label %92, label %93

92:                                               ; preds = %87
  br label %99

93:                                               ; preds = %87
  %94 = load i32, ptr %10, align 4, !tbaa !3
  %95 = and i32 %94, 255
  %96 = or i32 33554432, %95
  %97 = icmp eq i32 %96, 33554451
  %98 = select i1 %97, i32 64, i32 0
  br label %99

99:                                               ; preds = %93, %92
  %100 = phi i32 [ 48, %92 ], [ %98, %93 ]
  br label %101

101:                                              ; preds = %99, %86
  %102 = phi i32 [ 32, %86 ], [ %100, %99 ]
  br label %103

103:                                              ; preds = %101, %80
  %104 = phi i32 [ 28, %80 ], [ %102, %101 ]
  br label %105

105:                                              ; preds = %103, %74
  %106 = phi i32 [ 32, %74 ], [ %104, %103 ]
  br label %107

107:                                              ; preds = %105, %68
  %108 = phi i32 [ 28, %68 ], [ %106, %105 ]
  br label %109

109:                                              ; preds = %107, %62
  %110 = phi i32 [ 64, %62 ], [ %108, %107 ]
  br label %111

111:                                              ; preds = %109, %56
  %112 = phi i32 [ 48, %56 ], [ %110, %109 ]
  br label %113

113:                                              ; preds = %111, %50
  %114 = phi i32 [ 32, %50 ], [ %112, %111 ]
  br label %115

115:                                              ; preds = %113, %44
  %116 = phi i32 [ 28, %44 ], [ %114, %113 ]
  br label %117

117:                                              ; preds = %115, %38
  %118 = phi i32 [ 20, %38 ], [ %116, %115 ]
  br label %119

119:                                              ; preds = %117, %32
  %120 = phi i32 [ 20, %32 ], [ %118, %117 ]
  br label %121

121:                                              ; preds = %119, %26
  %122 = phi i32 [ 16, %26 ], [ %120, %119 ]
  %123 = zext i32 %122 to i64
  store i64 %123, ptr %19, align 8, !tbaa !10
  call void @llvm.lifetime.start.p0(i64 8, ptr %20) #8
  %124 = load i32, ptr %10, align 4, !tbaa !3
  %125 = and i32 %124, 2130706432
  %126 = icmp eq i32 %125, 33554432
  br i1 %126, label %128, label %127

127:                                              ; preds = %121
  store i32 -27648, ptr %8, align 4
  store i32 1, ptr %21, align 4
  br label %184

128:                                              ; preds = %121
  %129 = load i32, ptr %10, align 4, !tbaa !3
  %130 = load ptr, ptr %11, align 8, !tbaa !7
  %131 = load i64, ptr %12, align 8, !tbaa !10
  %132 = getelementptr inbounds [64 x i8], ptr %18, i64 0, i64 0
  %133 = call i32 @mbedtls_ssl_tls13_evolve_secret(i32 noundef %129, ptr noundef null, ptr noundef %130, i64 noundef %131, ptr noundef %132)
  store i32 %133, ptr %16, align 4, !tbaa !3
  %134 = load i32, ptr %16, align 4, !tbaa !3
  %135 = icmp ne i32 %134, 0
  br i1 %135, label %136, label %139

136:                                              ; preds = %128
  %137 = load ptr, ptr %9, align 8, !tbaa !21
  %138 = load i32, ptr %16, align 4, !tbaa !3
  call void @mbedtls_debug_print_ret(ptr noundef %137, i32 noundef 1, ptr noundef @.str, i32 noundef 874, ptr noundef @.str.6, i32 noundef %138)
  br label %180

139:                                              ; preds = %128
  %140 = load ptr, ptr %9, align 8, !tbaa !21
  %141 = getelementptr inbounds [64 x i8], ptr %18, i64 0, i64 0
  %142 = load i64, ptr %19, align 8, !tbaa !10
  call void @mbedtls_debug_print_buf(ptr noundef %140, i32 noundef 4, ptr noundef @.str, i32 noundef 879, ptr noundef @.str.7, ptr noundef %141, i64 noundef %142)
  %143 = load i32, ptr %13, align 4, !tbaa !3
  %144 = icmp eq i32 %143, 1
  br i1 %144, label %145, label %153

145:                                              ; preds = %139
  %146 = load i32, ptr %10, align 4, !tbaa !3
  %147 = getelementptr inbounds [64 x i8], ptr %18, i64 0, i64 0
  %148 = load i64, ptr %19, align 8, !tbaa !10
  %149 = getelementptr inbounds [64 x i8], ptr %17, i64 0, i64 0
  %150 = load i64, ptr %19, align 8, !tbaa !10
  %151 = call i32 @mbedtls_ssl_tls13_derive_secret(i32 noundef %146, ptr noundef %147, i64 noundef %148, ptr noundef getelementptr inbounds nuw (%struct.mbedtls_ssl_tls13_labels_struct, ptr @mbedtls_ssl_tls13_labels, i32 0, i32 16), i64 noundef 10, ptr noundef null, i64 noundef 0, i32 noundef 0, ptr noundef %149, i64 noundef %150)
  store i32 %151, ptr %16, align 4, !tbaa !3
  %152 = load ptr, ptr %9, align 8, !tbaa !21
  call void (ptr, i32, ptr, i32, ptr, ...) @mbedtls_debug_print_msg(ptr noundef %152, i32 noundef 4, ptr noundef @.str, i32 noundef 888, ptr noundef @.str.8)
  br label %161

153:                                              ; preds = %139
  %154 = load i32, ptr %10, align 4, !tbaa !3
  %155 = getelementptr inbounds [64 x i8], ptr %18, i64 0, i64 0
  %156 = load i64, ptr %19, align 8, !tbaa !10
  %157 = getelementptr inbounds [64 x i8], ptr %17, i64 0, i64 0
  %158 = load i64, ptr %19, align 8, !tbaa !10
  %159 = call i32 @mbedtls_ssl_tls13_derive_secret(i32 noundef %154, ptr noundef %155, i64 noundef %156, ptr noundef getelementptr inbounds nuw (%struct.mbedtls_ssl_tls13_labels_struct, ptr @mbedtls_ssl_tls13_labels, i32 0, i32 15), i64 noundef 10, ptr noundef null, i64 noundef 0, i32 noundef 0, ptr noundef %157, i64 noundef %158)
  store i32 %159, ptr %16, align 4, !tbaa !3
  %160 = load ptr, ptr %9, align 8, !tbaa !21
  call void (ptr, i32, ptr, i32, ptr, ...) @mbedtls_debug_print_msg(ptr noundef %160, i32 noundef 4, ptr noundef @.str, i32 noundef 896, ptr noundef @.str.9)
  br label %161

161:                                              ; preds = %153, %145
  %162 = load i32, ptr %16, align 4, !tbaa !3
  %163 = icmp ne i32 %162, 0
  br i1 %163, label %164, label %167

164:                                              ; preds = %161
  %165 = load ptr, ptr %9, align 8, !tbaa !21
  %166 = load i32, ptr %16, align 4, !tbaa !3
  call void @mbedtls_debug_print_ret(ptr noundef %165, i32 noundef 1, ptr noundef @.str, i32 noundef 900, ptr noundef @.str.10, i32 noundef %166)
  br label %180

167:                                              ; preds = %161
  %168 = load i32, ptr %10, align 4, !tbaa !3
  %169 = getelementptr inbounds [64 x i8], ptr %17, i64 0, i64 0
  %170 = load ptr, ptr %14, align 8, !tbaa !7
  %171 = load ptr, ptr %15, align 8, !tbaa !7
  %172 = call i32 @ssl_tls13_calc_finished_core(i32 noundef %168, ptr noundef %169, ptr noundef %170, ptr noundef %171, ptr noundef %20)
  store i32 %172, ptr %16, align 4, !tbaa !3
  %173 = load i32, ptr %16, align 4, !tbaa !3
  %174 = icmp ne i32 %173, 0
  br i1 %174, label %175, label %176

175:                                              ; preds = %167
  br label %180

176:                                              ; preds = %167
  %177 = load ptr, ptr %9, align 8, !tbaa !21
  %178 = load ptr, ptr %15, align 8, !tbaa !7
  %179 = load i64, ptr %20, align 8, !tbaa !10
  call void @mbedtls_debug_print_buf(ptr noundef %177, i32 noundef 3, ptr noundef @.str, i32 noundef 915, ptr noundef @.str.11, ptr noundef %178, i64 noundef %179)
  br label %180

180:                                              ; preds = %176, %175, %164, %136
  %181 = getelementptr inbounds [64 x i8], ptr %18, i64 0, i64 0
  call void @mbedtls_platform_zeroize(ptr noundef %181, i64 noundef 64)
  %182 = getelementptr inbounds [64 x i8], ptr %17, i64 0, i64 0
  call void @mbedtls_platform_zeroize(ptr noundef %182, i64 noundef 64)
  %183 = load i32, ptr %16, align 4, !tbaa !3
  store i32 %183, ptr %8, align 4
  store i32 1, ptr %21, align 4
  br label %184

184:                                              ; preds = %180, %127
  call void @llvm.lifetime.end.p0(i64 8, ptr %20) #8
  call void @llvm.lifetime.end.p0(i64 8, ptr %19) #8
  call void @llvm.lifetime.end.p0(i64 64, ptr %18) #8
  call void @llvm.lifetime.end.p0(i64 64, ptr %17) #8
  call void @llvm.lifetime.end.p0(i64 4, ptr %16) #8
  %185 = load i32, ptr %8, align 4
  ret i32 %185
}