; Function Attrs: nounwind uwtable
define hidden i32 @mbedtls_ssl_tls13_create_psk_binder(ptr noundef %0, i32 noundef %1, ptr noundef %2, i64 noundef %3, i32 noundef %4, ptr noundef %5, ptr noundef %6) local_unnamed_addr #0 {
  %8 = alloca [64 x i8], align 16
  %9 = alloca [64 x i8], align 16
  %10 = alloca i64, align 8
  call void @llvm.lifetime.start.p0(i64 64, ptr nonnull %8) #8
  call void @llvm.lifetime.start.p0(i64 64, ptr nonnull %9) #8
  %trunc = trunc i32 %1 to i8
  %switch.tableidx = add i8 %trunc, -3
  %11 = icmp ult i8 %switch.tableidx, 16
  br i1 %11, label %switch.hole_check, label %12

12:                                               ; preds = %switch.hole_check, %7
  %13 = and i32 %1, 255
  %14 = icmp eq i32 %13, 19
  %15 = select i1 %14, i64 64, i64 0
  br label %17

switch.hole_check:                                ; preds = %7
  %switch.maskindex = zext nneg i8 %switch.tableidx to i16
  %switch.shifted = lshr i16 -6169, %switch.maskindex
  %switch.lobit = trunc i16 %switch.shifted to i1
  br i1 %switch.lobit, label %switch.lookup, label %12

switch.lookup:                                    ; preds = %switch.hole_check
  %16 = zext nneg i8 %switch.tableidx to i64
  %switch.gep = getelementptr inbounds nuw [16 x i64], ptr @switch.table.mbedtls_ssl_tls13_compute_application_transform.13, i64 0, i64 %16
  %switch.load = load i64, ptr %switch.gep, align 8
  br label %17

17:                                               ; preds = %switch.lookup, %12
  %18 = phi i64 [ %15, %12 ], [ %switch.load, %switch.lookup ]
  call void @llvm.lifetime.start.p0(i64 8, ptr nonnull %10) #8
  %19 = and i32 %1, 2130706432
  %20 = icmp eq i32 %19, 33554432
  br i1 %20, label %21, label %37

21:                                               ; preds = %17
  %22 = call i32 @mbedtls_ssl_tls13_evolve_secret(i32 noundef %1, ptr noundef null, ptr noundef %2, i64 noundef %3, ptr noundef nonnull %9)
  %.not = icmp eq i32 %22, 0
  br i1 %.not, label %24, label %23

23:                                               ; preds = %21
  call void @mbedtls_debug_print_ret(ptr noundef %0, i32 noundef 1, ptr noundef nonnull @.str, i32 noundef 874, ptr noundef nonnull @.str.6, i32 noundef %22) #8
  br label %36

24:                                               ; preds = %21
  call void @mbedtls_debug_print_buf(ptr noundef %0, i32 noundef 4, ptr noundef nonnull @.str, i32 noundef 879, ptr noundef nonnull @.str.7, ptr noundef nonnull %9, i64 noundef %18) #8
  %25 = icmp eq i32 %4, 1
  br i1 %25, label %26, label %28

26:                                               ; preds = %24
  %27 = call i32 @mbedtls_ssl_tls13_derive_secret(i32 noundef %1, ptr noundef nonnull %9, i64 noundef %18, ptr noundef nonnull getelementptr inbounds nuw (i8, ptr @mbedtls_ssl_tls13_labels, i64 154), i64 noundef 10, ptr noundef null, i64 noundef 0, i32 noundef 0, ptr noundef nonnull %8, i64 noundef %18)
  call void (ptr, i32, ptr, i32, ptr, ...) @mbedtls_debug_print_msg(ptr noundef %0, i32 noundef 4, ptr noundef nonnull @.str, i32 noundef 888, ptr noundef nonnull @.str.8) #8
  br label %30

28:                                               ; preds = %24
  %29 = call i32 @mbedtls_ssl_tls13_derive_secret(i32 noundef %1, ptr noundef nonnull %9, i64 noundef %18, ptr noundef nonnull getelementptr inbounds nuw (i8, ptr @mbedtls_ssl_tls13_labels, i64 144), i64 noundef 10, ptr noundef null, i64 noundef 0, i32 noundef 0, ptr noundef nonnull %8, i64 noundef %18)
  call void (ptr, i32, ptr, i32, ptr, ...) @mbedtls_debug_print_msg(ptr noundef %0, i32 noundef 4, ptr noundef nonnull @.str, i32 noundef 896, ptr noundef nonnull @.str.9) #8
  br label %30

30:                                               ; preds = %28, %26
  %.1 = phi i32 [ %27, %26 ], [ %29, %28 ]
  %.not46 = icmp eq i32 %.1, 0
  br i1 %.not46, label %32, label %31

31:                                               ; preds = %30
  call void @mbedtls_debug_print_ret(ptr noundef %0, i32 noundef 1, ptr noundef nonnull @.str, i32 noundef 900, ptr noundef nonnull @.str.10, i32 noundef %.1) #8
  br label %36

32:                                               ; preds = %30
  %33 = call fastcc i32 @ssl_tls13_calc_finished_core(i32 noundef %1, ptr noundef nonnull %8, ptr noundef %5, ptr noundef %6, ptr noundef nonnull %10)
  %.not47 = icmp eq i32 %33, 0
  br i1 %.not47, label %34, label %36

34:                                               ; preds = %32
  %35 = load i64, ptr %10, align 8, !tbaa !10
  call void @mbedtls_debug_print_buf(ptr noundef %0, i32 noundef 3, ptr noundef nonnull @.str, i32 noundef 915, ptr noundef nonnull @.str.11, ptr noundef %6, i64 noundef %35) #8
  br label %36

36:                                               ; preds = %32, %34, %31, %23
  %.041 = phi i32 [ %22, %23 ], [ %.1, %31 ], [ %33, %32 ], [ 0, %34 ]
  call void @mbedtls_platform_zeroize(ptr noundef nonnull %9, i64 noundef 64) #8
  call void @mbedtls_platform_zeroize(ptr noundef nonnull %8, i64 noundef 64) #8
  br label %37

37:                                               ; preds = %17, %36
  %.0 = phi i32 [ %.041, %36 ], [ -27648, %17 ]
  call void @llvm.lifetime.end.p0(i64 8, ptr nonnull %10) #8
  call void @llvm.lifetime.end.p0(i64 64, ptr nonnull %9) #8
  call void @llvm.lifetime.end.p0(i64 64, ptr nonnull %8) #8
  ret i32 %.0
}